; Function Attrs: nounwind uwtable
define dso_local void @srun_ping() local_unnamed_addr #0 {
  %1 = alloca i64, align 8
  call void @llvm.lifetime.start.p0(i64 8, ptr nonnull %1) #6
  %2 = tail call i64 @time(ptr noundef null) #6
  %3 = load i16, ptr getelementptr inbounds nuw (i8, ptr @slurm_conf, i64 460), align 4
  %4 = udiv i16 %3, 3
  %5 = zext nneg i16 %4 to i64
  %6 = load i16, ptr getelementptr inbounds nuw (i8, ptr @slurm_conf, i64 744), align 8
  %7 = zext i16 %6 to i64
  %8 = add i64 %2, 1
  %9 = sub i64 %8, %5
  %10 = add i64 %9, %7
  store i64 %10, ptr %1, align 8
  %11 = icmp eq i16 %3, 0
  br i1 %11, label %17, label %12

12:                                               ; preds = %0
  %13 = load ptr, ptr @stepmgr_ops, align 8
  %14 = getelementptr inbounds nuw i8, ptr %13, i64 16
  %15 = load ptr, ptr %14, align 8
  %16 = call i32 @list_for_each_ro(ptr noundef %15, ptr noundef nonnull @_srun_ping, ptr noundef nonnull %1) #6
  br label %17

17:                                               ; preds = %0, %12
  call void @llvm.lifetime.end.p0(i64 8, ptr nonnull %1) #6
  ret void
}